; Function Attrs: mustprogress uwtable
define void @_ZN18DisplayFilterCombo11writeRecentEP8_IO_FILE(ptr noundef nonnull align 8 dereferenceable(40) %0, ptr nocapture noundef %1) local_unnamed_addr #0 align 2 personality ptr @__gxx_personality_v0 {
  %3 = alloca %class.QByteArray, align 8
  %4 = alloca %class.QString, align 8
  %5 = tail call noundef i32 @_ZNK9QComboBox5countEv(ptr noundef nonnull align 8 dereferenceable(40) %0)
  %6 = icmp sgt i32 %5, 0
  br i1 %6, label %.lr.ph, label %._crit_edge

.lr.ph:                                           ; preds = %2
  %7 = getelementptr inbounds i8, ptr %3, i64 16
  %8 = getelementptr inbounds i8, ptr %3, i64 8
  br label %9

9:                                                ; preds = %.lr.ph, %_ZN10QByteArrayD2Ev.exit21
  %.0922 = phi i32 [ 0, %.lr.ph ], [ %31, %_ZN10QByteArrayD2Ev.exit21 ]
  call void @_ZNK9QComboBox8itemTextEi(ptr dead_on_unwind nonnull writable sret(%class.QString) align 8 %4, ptr noundef nonnull align 8 dereferenceable(40) %0, i32 noundef %.0922)
  invoke void @_ZN7QString13toUtf8_helperERKS_(ptr dead_on_unwind nonnull writable sret(%class.QByteArray) align 8 %3, ptr noundef nonnull align 8 dereferenceable(24) %4)
          to label %_ZNO7QString6toUtf8Ev.exit unwind label %20

_ZNO7QString6toUtf8Ev.exit:                       ; preds = %9
  %10 = load ptr, ptr %4, align 8
  %.not.i.i.i = icmp eq ptr %10, null
  br i1 %.not.i.i.i, label %14, label %_ZN17QArrayDataPointerIDsE5derefEv.exit.i.i

_ZN17QArrayDataPointerIDsE5derefEv.exit.i.i:      ; preds = %_ZNO7QString6toUtf8Ev.exit
  %11 = atomicrmw sub ptr %10, i32 1 seq_cst, align 4
  %.not.i.i = icmp eq i32 %11, 1
  br i1 %.not.i.i, label %12, label %14

12:                                               ; preds = %_ZN17QArrayDataPointerIDsE5derefEv.exit.i.i
  %13 = load ptr, ptr %4, align 8
  call void @_ZN10QArrayData10deallocateEPS_xx(ptr noundef %13, i64 noundef 2, i64 noundef 8) #11
  br label %14

14:                                               ; preds = %12, %_ZN17QArrayDataPointerIDsE5derefEv.exit.i.i, %_ZNO7QString6toUtf8Ev.exit
  %15 = load i64, ptr %7, align 8
  %16 = icmp eq i64 %15, 0
  br i1 %16, label %26, label %17

17:                                               ; preds = %14
  %18 = load ptr, ptr %8, align 8
  %.not.i.i11 = icmp eq ptr %18, null
  %spec.select.i.i = select i1 %.not.i.i11, ptr @_ZN10QByteArray6_emptyE, ptr %18
  %19 = call i32 (ptr, ptr, ...) @fprintf(ptr noundef %1, ptr noundef nonnull @.str.2, ptr noundef nonnull %spec.select.i.i) #11
  br label %26

20:                                               ; preds = %9
  %21 = landingpad { ptr, i32 }
          cleanup
  %22 = load ptr, ptr %4, align 8
  %.not.i.i.i12 = icmp eq ptr %22, null
  br i1 %.not.i.i.i12, label %_ZN7QStringD2Ev.exit15, label %_ZN17QArrayDataPointerIDsE5derefEv.exit.i.i13

_ZN17QArrayDataPointerIDsE5derefEv.exit.i.i13:    ; preds = %20
  %23 = atomicrmw sub ptr %22, i32 1 seq_cst, align 4
  %.not.i.i14 = icmp eq i32 %23, 1
  br i1 %.not.i.i14, label %24, label %_ZN7QStringD2Ev.exit15

24:                                               ; preds = %_ZN17QArrayDataPointerIDsE5derefEv.exit.i.i13
  %25 = load ptr, ptr %4, align 8
  call void @_ZN10QArrayData10deallocateEPS_xx(ptr noundef %25, i64 noundef 2, i64 noundef 8) #11
  br label %_ZN7QStringD2Ev.exit15

26:                                               ; preds = %17, %14
  %27 = load ptr, ptr %3, align 8
  %.not.i.i.i18 = icmp eq ptr %27, null
  br i1 %.not.i.i.i18, label %_ZN10QByteArrayD2Ev.exit21, label %_ZN17QArrayDataPointerIcE5derefEv.exit.i.i19

_ZN17QArrayDataPointerIcE5derefEv.exit.i.i19:     ; preds = %26
  %28 = atomicrmw sub ptr %27, i32 1 seq_cst, align 4
  %.not.i.i20 = icmp eq i32 %28, 1
  br i1 %.not.i.i20, label %29, label %_ZN10QByteArrayD2Ev.exit21

29:                                               ; preds = %_ZN17QArrayDataPointerIcE5derefEv.exit.i.i19
  %30 = load ptr, ptr %3, align 8
  call void @_ZN10QArrayData10deallocateEPS_xx(ptr noundef %30, i64 noundef 1, i64 noundef 8) #11
  br label %_ZN10QByteArrayD2Ev.exit21

_ZN10QByteArrayD2Ev.exit21:                       ; preds = %26, %_ZN17QArrayDataPointerIcE5derefEv.exit.i.i19, %29
  %31 = add nuw nsw i32 %.0922, 1
  %32 = call noundef i32 @_ZNK9QComboBox5countEv(ptr noundef nonnull align 8 dereferenceable(40) %0)
  %33 = icmp slt i32 %31, %32
  br i1 %33, label %9, label %._crit_edge, !llvm.loop !10

._crit_edge:                                      ; preds = %_ZN10QByteArrayD2Ev.exit21, %2
  ret void

_ZN7QStringD2Ev.exit15:                           ; preds = %24, %_ZN17QArrayDataPointerIDsE5derefEv.exit.i.i13, %20
  resume { ptr, i32 } %21
}